target datalayout = "e-m:e-p270:32:32-p271:32:32-p272:64:64-i64:64-i128:128-f80:128-n8:16:32:64-S128"
target triple = "x86_64-pc-linux-gnu"

%"struct.WasmEdge::Host::WASI::DirHolder" = type { ptr, i64, %"class.std::vector" }
%"class.std::vector" = type { %"struct.std::_Vector_base" }
%"struct.std::_Vector_base" = type { %"struct.std::_Vector_base<unsigned char, std::allocator<unsigned char>>::_Vector_impl" }
%"struct.std::_Vector_base<unsigned char, std::allocator<unsigned char>>::_Vector_impl" = type { %"struct.std::_Vector_base<unsigned char, std::allocator<unsigned char>>::_Vector_impl_data" }
%"struct.std::_Vector_base<unsigned char, std::allocator<unsigned char>>::_Vector_impl_data" = type { ptr, ptr, ptr }
%"class.WasmEdge::Host::WASI::INode" = type { %"struct.WasmEdge::Host::WASI::FdHolder.base", [3 x i8], %"class.std::optional.0", %"struct.WasmEdge::Host::WASI::DirHolder" }
%"struct.WasmEdge::Host::WASI::FdHolder.base" = type <{ i32, i8 }>
%"class.std::optional.0" = type { %"struct.std::_Optional_base.1" }
%"struct.std::_Optional_base.1" = type { %"struct.std::_Optional_payload.3" }
%"struct.std::_Optional_payload.3" = type { %"struct.std::_Optional_payload_base.base.5", [7 x i8] }
%"struct.std::_Optional_payload_base.base.5" = type <{ %"union.std::_Optional_payload_base<stat>::_Storage", i8 }>
%"union.std::_Optional_payload_base<stat>::_Storage" = type { %struct.stat }
%struct.stat = type { i64, i64, i64, i32, i32, i32, i32, i64, i64, i64, i64, %struct.timespec, %struct.timespec, %struct.timespec, [3 x i64] }
%struct.timespec = type { i64, i64 }
%"struct.std::_Optional_payload_base.4" = type <{ %"union.std::_Optional_payload_base<stat>::_Storage", i8, [7 x i8] }>

; Function Attrs: mustprogress nounwind uwtable
define linkonce_odr hidden noundef nonnull align 8 dereferenceable(144) ptr @_ZNSt22_Optional_payload_baseI4statE6_M_getEv(ptr noundef nonnull align 8 dereferenceable(145) %0) #0 comdat align 2 {
  %2 = alloca ptr, align 8
  store ptr %0, ptr %2, align 8
  %3 = load ptr, ptr %2, align 8
  %4 = getelementptr inbounds %"struct.std::_Optional_payload_base.4", ptr %3, i32 0, i32 0
  ret ptr %4
}

; Function Attrs: mustprogress nounwind uwtable
define linkonce_odr hidden noundef nonnull align 8 dereferenceable(144) ptr @_ZNSt19_Optional_base_implI4statSt14_Optional_baseIS0_Lb1ELb1EEE6_M_getEv(ptr noundef nonnull align 1 dereferenceable(1) %0) #0 comdat align 2 {
  %2 = alloca ptr, align 8
  store ptr %0, ptr %2, align 8
  %3 = load ptr, ptr %2, align 8
  br label %4

4:                                                ; preds = %1
  br label %5

5:                                                ; preds = %4
  br label %6

6:                                                ; preds = %5
  %7 = getelementptr inbounds %"struct.std::_Optional_base.1", ptr %3, i32 0, i32 0
  %8 = call noundef nonnull align 8 dereferenceable(144) ptr @_ZNSt22_Optional_payload_baseI4statE6_M_getEv(ptr noundef nonnull align 8 dereferenceable(145) %7) #14
  ret ptr %8
}

; Function Attrs: mustprogress nounwind uwtable
define linkonce_odr hidden noundef zeroext i8 @_ZN8WasmEdge4Host4WASI6detail12fromFileTypeEj(i32 noundef %0) #0 comdat {
  %2 = alloca i8, align 1
  %3 = alloca i32, align 4
  store i32 %0, ptr %3, align 4
  %4 = load i32, ptr %3, align 4
  %5 = and i32 %4, 61440
  switch i32 %5, label %13 [
    i32 24576, label %6
    i32 8192, label %7
    i32 16384, label %8
    i32 32768, label %9
    i32 49152, label %10
    i32 40960, label %11
    i32 4096, label %12
  ]

6:                                                ; preds = %1
  store i8 1, ptr %2, align 1
  br label %14

7:                                                ; preds = %1
  store i8 2, ptr %2, align 1
  br label %14

8:                                                ; preds = %1
  store i8 3, ptr %2, align 1
  br label %14

9:                                                ; preds = %1
  store i8 4, ptr %2, align 1
  br label %14

10:                                               ; preds = %1
  store i8 6, ptr %2, align 1
  br label %14

11:                                               ; preds = %1
  store i8 7, ptr %2, align 1
  br label %14

12:                                               ; preds = %1
  br label %13

13:                                               ; preds = %12, %1
  store i8 0, ptr %2, align 1
  br label %14

14:                                               ; preds = %13, %11, %10, %9, %8, %7, %6
  %15 = load i8, ptr %2, align 1
  ret i8 %15
}

; Function Attrs: mustprogress nounwind uwtable
define linkonce_odr hidden noundef ptr @_ZNSt8optionalI4statEptEv(ptr noundef nonnull align 8 dereferenceable(152) %0) #0 comdat align 2 {
  %2 = alloca ptr, align 8
  store ptr %0, ptr %2, align 8
  %3 = load ptr, ptr %2, align 8
  %4 = call noundef nonnull align 8 dereferenceable(144) ptr @_ZNSt19_Optional_base_implI4statSt14_Optional_baseIS0_Lb1ELb1EEE6_M_getEv(ptr noundef nonnull align 1 dereferenceable(1) %3) #14
  ret ptr %4
}

; Function Attrs: mustprogress nounwind uwtable
define noundef zeroext i8 @_ZNK8WasmEdge4Host4WASI5INode14unsafeFiletypeEv(ptr noundef nonnull align 8 dereferenceable(200) %0) #0 align 2 {
  %2 = alloca ptr, align 8
  store ptr %0, ptr %2, align 8
  %3 = load ptr, ptr %2, align 8
  %4 = getelementptr inbounds %"class.WasmEdge::Host::WASI::INode", ptr %3, i32 0, i32 2
  %5 = call noundef ptr @_ZNSt8optionalI4statEptEv(ptr noundef nonnull align 8 dereferenceable(152) %4) #14
  %6 = getelementptr inbounds %struct.stat, ptr %5, i32 0, i32 3
  %7 = load i32, ptr %6, align 8
  %8 = call noundef zeroext i8 @_ZN8WasmEdge4Host4WASI6detail12fromFileTypeEj(i32 noundef %7) #14
  ret i8 %8
}