; Function Attrs: mustprogress nofree norecurse nosync nounwind willreturn memory(argmem: read) uwtable
define noundef zeroext range(i8 0, 8) i8 @_ZNK8WasmEdge4Host4WASI5INode14unsafeFiletypeEv(ptr noundef nonnull readonly align 8 captures(none) dereferenceable(200) %0) local_unnamed_addr #11 align 2 {
  %2 = getelementptr inbounds nuw i8, ptr %0, i64 32
  %3 = load i32, ptr %2, align 8
  %4 = and i32 %3, 61440
  %5 = add nsw i32 %4, -4096
  %6 = lshr exact i32 %5, 12
  %switch.tableidx = add nsw i32 %6, -1
  %7 = icmp ult i32 %switch.tableidx, 11
  br i1 %7, label %switch.lookup, label %_ZN8WasmEdge4Host4WASI6detail12fromFileTypeEj.exit

switch.lookup:                                    ; preds = %1
  %8 = zext nneg i32 %switch.tableidx to i64
  %switch.gep = getelementptr inbounds nuw [11 x i8], ptr @switch.table._ZNK8WasmEdge4Host4WASI5INode15pathFilestatGetENSt7__cxx1112basic_stringIcSt11char_traitsIcESaIcEEER17__wasi_filestat_t, i64 0, i64 %8
  %switch.load = load i8, ptr %switch.gep, align 1
  br label %_ZN8WasmEdge4Host4WASI6detail12fromFileTypeEj.exit

_ZN8WasmEdge4Host4WASI6detail12fromFileTypeEj.exit: ; preds = %1, %switch.lookup
  %.0.i = phi i8 [ %switch.load, %switch.lookup ], [ 0, %1 ]
  ret i8 %.0.i
}